target datalayout = "e-m:e-p270:32:32-p271:32:32-p272:64:64-i64:64-i128:128-f80:128-n8:16:32:64-S128"
target triple = "x86_64-pc-linux-gnu"

%struct.H5G_name_t = type { ptr, ptr, i32 }
%struct.H5G_loc_t = type { ptr, ptr }
%struct.H5O_loc_t = type { ptr, i64, i8 }
%struct.H5G_gnba_iter_t = type { ptr, ptr }
%struct.H5L_info2_t = type { i32, i8, i64, i32, %union.anon.0 }
%union.anon.0 = type { i64, [8 x i8] }

@.str.1 = private unnamed_addr constant [101 x i8] c"generated/home/dtcxzyw/WorkSpace/Projects/compilers/llvm-opt-benchmark/bench/hdf5/hdf5/src/H5Gname.c\00", align 1
@H5E_SYM_g = external global i64, align 8
@H5E_BADTYPE_g = external global i64, align 8
@H5E_CANTALLOC_g = external global i64, align 8
@.str.14 = private unnamed_addr constant [28 x i8] c"can't duplicate path string\00", align 1
@H5E_ARGS_g = external global i64, align 8
@__func__.H5G__get_name_by_addr_cb = private unnamed_addr constant [25 x i8] c"H5G__get_name_by_addr_cb\00", align 1
@H5E_CANTUNSERIALIZE_g = external global i64, align 8
@.str.19 = private unnamed_addr constant [44 x i8] c"can't deserialize object token into address\00", align 1
@.str.20 = private unnamed_addr constant [19 x i8] c"bad group location\00", align 1
@H5E_NOTFOUND_g = external global i64, align 8
@.str.21 = private unnamed_addr constant [17 x i8] c"object not found\00", align 1
@H5E_CANTRELEASE_g = external global i64, align 8
@.str.22 = private unnamed_addr constant [20 x i8] c"can't free location\00", align 1

; Function Attrs: nounwind uwtable
define internal i32 @H5G__get_name_by_addr_cb(i64 noundef %0, ptr noundef %1, ptr noundef %2, ptr noundef %3) #0 {
  %5 = alloca i64, align 8
  %6 = alloca ptr, align 8
  %7 = alloca ptr, align 8
  %8 = alloca ptr, align 8
  %9 = alloca ptr, align 8
  %10 = alloca %struct.H5G_loc_t, align 8
  %11 = alloca %struct.H5G_name_t, align 8
  %12 = alloca %struct.H5O_loc_t, align 8
  %13 = alloca i8, align 1
  %14 = alloca i32, align 4
  %15 = alloca i8, align 1
  %16 = alloca i64, align 8
  %17 = alloca %struct.H5G_loc_t, align 8
  store i64 %0, ptr %5, align 8
  store ptr %1, ptr %6, align 8
  store ptr %2, ptr %7, align 8
  store ptr %3, ptr %8, align 8
  %18 = load ptr, ptr %8, align 8
  store ptr %18, ptr %9, align 8
  store i8 0, ptr %13, align 1
  store i32 0, ptr %14, align 4
  store i8 0, ptr %15, align 1
  %19 = load ptr, ptr %7, align 8
  %20 = getelementptr inbounds %struct.H5L_info2_t, ptr %19, i32 0, i32 0
  %21 = load i32, ptr %20, align 8
  %22 = icmp eq i32 %21, 0
  br i1 %22, label %23, label %149

23:                                               ; preds = %4
  %24 = load ptr, ptr %9, align 8
  %25 = getelementptr inbounds %struct.H5G_gnba_iter_t, ptr %24, i32 0, i32 0
  %26 = load ptr, ptr %25, align 8
  %27 = getelementptr inbounds %struct.H5O_loc_t, ptr %26, i32 0, i32 0
  %28 = load ptr, ptr %27, align 8
  %29 = load ptr, ptr %7, align 8
  %30 = getelementptr inbounds %struct.H5L_info2_t, ptr %29, i32 0, i32 4
  %31 = getelementptr inbounds { i64, i64 }, ptr %30, i32 0, i32 0
  %32 = load i64, ptr %31, align 8
  %33 = getelementptr inbounds { i64, i64 }, ptr %30, i32 0, i32 1
  %34 = load i64, ptr %33, align 8
  %35 = call i32 @H5VL_native_token_to_addr(ptr noundef %28, i32 noundef 1, i64 %32, i64 %34, ptr noundef %16)
  %36 = icmp slt i32 %35, 0
  br i1 %36, label %37, label %52

37:                                               ; preds = %23
  br label %38

38:                                               ; preds = %37
  br label %39

39:                                               ; preds = %38
  br label %40

40:                                               ; preds = %39
  %41 = load i64, ptr @H5E_SYM_g, align 8
  %42 = load i64, ptr @H5E_CANTUNSERIALIZE_g, align 8
  %43 = call i32 (ptr, ptr, i32, i64, i64, ptr, ...) @H5E_printf_stack(ptr noundef @.str.1, ptr noundef @__func__.H5G__get_name_by_addr_cb, i32 noundef 1051, i64 noundef %41, i64 noundef %42, ptr noundef @.str.19)
  br label %44

44:                                               ; preds = %40
  store i8 1, ptr %15, align 1
  %45 = load i8, ptr %15, align 1
  %46 = trunc i8 %45 to i1
  %47 = zext i1 %46 to i8
  store i8 %47, ptr %15, align 1
  br label %48

48:                                               ; preds = %44
  br label %49

49:                                               ; preds = %48
  store i32 -1, ptr %14, align 4
  br label %150

50:                                               ; No predecessors!
  br label %51

51:                                               ; preds = %50
  br label %52

52:                                               ; preds = %51, %23
  %53 = load ptr, ptr %9, align 8
  %54 = getelementptr inbounds %struct.H5G_gnba_iter_t, ptr %53, i32 0, i32 0
  %55 = load ptr, ptr %54, align 8
  %56 = getelementptr inbounds %struct.H5O_loc_t, ptr %55, i32 0, i32 1
  %57 = load i64, ptr %56, align 8
  %58 = load i64, ptr %16, align 8
  %59 = icmp eq i64 %57, %58
  br i1 %59, label %60, label %148

60:                                               ; preds = %52
  %61 = load i64, ptr %5, align 8
  %62 = call i32 @H5G_loc(i64 noundef %61, ptr noundef %17)
  %63 = icmp slt i32 %62, 0
  br i1 %63, label %64, label %79

64:                                               ; preds = %60
  br label %65

65:                                               ; preds = %64
  br label %66

66:                                               ; preds = %65
  br label %67

67:                                               ; preds = %66
  %68 = load i64, ptr @H5E_ARGS_g, align 8
  %69 = load i64, ptr @H5E_BADTYPE_g, align 8
  %70 = call i32 (ptr, ptr, i32, i64, i64, ptr, ...) @H5E_printf_stack(ptr noundef @.str.1, ptr noundef @__func__.H5G__get_name_by_addr_cb, i32 noundef 1058, i64 noundef %68, i64 noundef %69, ptr noundef @.str.20)
  br label %71

71:                                               ; preds = %67
  store i8 1, ptr %15, align 1
  %72 = load i8, ptr %15, align 1
  %73 = trunc i8 %72 to i1
  %74 = zext i1 %73 to i8
  store i8 %74, ptr %15, align 1
  br label %75

75:                                               ; preds = %71
  br label %76

76:                                               ; preds = %75
  store i32 -1, ptr %14, align 4
  br label %150

77:                                               ; No predecessors!
  br label %78

78:                                               ; preds = %77
  br label %79

79:                                               ; preds = %78, %60
  %80 = getelementptr inbounds %struct.H5G_loc_t, ptr %10, i32 0, i32 0
  store ptr %12, ptr %80, align 8
  %81 = getelementptr inbounds %struct.H5G_loc_t, ptr %10, i32 0, i32 1
  store ptr %11, ptr %81, align 8
  %82 = call i32 @H5G_loc_reset(ptr noundef %10)
  %83 = load ptr, ptr %6, align 8
  %84 = call i32 @H5G_loc_find(ptr noundef %17, ptr noundef %83, ptr noundef %10)
  %85 = icmp slt i32 %84, 0
  br i1 %85, label %86, label %101

86:                                               ; preds = %79
  br label %87

87:                                               ; preds = %86
  br label %88

88:                                               ; preds = %87
  br label %89

89:                                               ; preds = %88
  %90 = load i64, ptr @H5E_SYM_g, align 8
  %91 = load i64, ptr @H5E_NOTFOUND_g, align 8
  %92 = call i32 (ptr, ptr, i32, i64, i64, ptr, ...) @H5E_printf_stack(ptr noundef @.str.1, ptr noundef @__func__.H5G__get_name_by_addr_cb, i32 noundef 1067, i64 noundef %90, i64 noundef %91, ptr noundef @.str.21)
  br label %93

93:                                               ; preds = %89
  store i8 1, ptr %15, align 1
  %94 = load i8, ptr %15, align 1
  %95 = trunc i8 %94 to i1
  %96 = zext i1 %95 to i8
  store i8 %96, ptr %15, align 1
  br label %97

97:                                               ; preds = %93
  br label %98

98:                                               ; preds = %97
  store i32 -1, ptr %14, align 4
  br label %150

99:                                               ; No predecessors!
  br label %100

100:                                              ; preds = %99
  br label %101

101:                                              ; preds = %100, %79
  store i8 1, ptr %13, align 1
  %102 = load ptr, ptr %9, align 8
  %103 = getelementptr inbounds %struct.H5G_gnba_iter_t, ptr %102, i32 0, i32 0
  %104 = load ptr, ptr %103, align 8
  %105 = getelementptr inbounds %struct.H5O_loc_t, ptr %104, i32 0, i32 1
  %106 = load i64, ptr %105, align 8
  %107 = getelementptr inbounds %struct.H5G_loc_t, ptr %10, i32 0, i32 0
  %108 = load ptr, ptr %107, align 8
  %109 = getelementptr inbounds %struct.H5O_loc_t, ptr %108, i32 0, i32 1
  %110 = load i64, ptr %109, align 8
  %111 = icmp eq i64 %106, %110
  br i1 %111, label %112, label %147

112:                                              ; preds = %101
  %113 = load ptr, ptr %9, align 8
  %114 = getelementptr inbounds %struct.H5G_gnba_iter_t, ptr %113, i32 0, i32 0
  %115 = load ptr, ptr %114, align 8
  %116 = getelementptr inbounds %struct.H5O_loc_t, ptr %115, i32 0, i32 0
  %117 = load ptr, ptr %116, align 8
  %118 = getelementptr inbounds %struct.H5G_loc_t, ptr %10, i32 0, i32 0
  %119 = load ptr, ptr %118, align 8
  %120 = getelementptr inbounds %struct.H5O_loc_t, ptr %119, i32 0, i32 0
  %121 = load ptr, ptr %120, align 8
  %122 = icmp eq ptr %117, %121
  br i1 %122, label %123, label %147

123:                                              ; preds = %112
  %124 = load ptr, ptr %6, align 8
  %125 = call noalias ptr @H5MM_strdup(ptr noundef %124)
  %126 = load ptr, ptr %9, align 8
  %127 = getelementptr inbounds %struct.H5G_gnba_iter_t, ptr %126, i32 0, i32 1
  store ptr %125, ptr %127, align 8
  %128 = icmp eq ptr null, %125
  br i1 %128, label %129, label %144

129:                                              ; preds = %123
  br label %130

130:                                              ; preds = %129
  br label %131

131:                                              ; preds = %130
  br label %132

132:                                              ; preds = %131
  %133 = load i64, ptr @H5E_SYM_g, align 8
  %134 = load i64, ptr @H5E_CANTALLOC_g, align 8
  %135 = call i32 (ptr, ptr, i32, i64, i64, ptr, ...) @H5E_printf_stack(ptr noundef @.str.1, ptr noundef @__func__.H5G__get_name_by_addr_cb, i32 noundef 1074, i64 noundef %133, i64 noundef %134, ptr noundef @.str.14)
  br label %136

136:                                              ; preds = %132
  store i8 1, ptr %15, align 1
  %137 = load i8, ptr %15, align 1
  %138 = trunc i8 %137 to i1
  %139 = zext i1 %138 to i8
  store i8 %139, ptr %15, align 1
  br label %140

140:                                              ; preds = %136
  br label %141

141:                                              ; preds = %140
  store i32 -1, ptr %14, align 4
  br label %150

142:                                              ; No predecessors!
  br label %143

143:                                              ; preds = %142
  br label %144

144:                                              ; preds = %143, %123
  br label %145

145:                                              ; preds = %144
  store i32 1, ptr %14, align 4
  br label %150

146:                                              ; No predecessors!
  br label %147

147:                                              ; preds = %146, %112, %101
  br label %148

148:                                              ; preds = %147, %52
  br label %149

149:                                              ; preds = %148, %4
  br label %150

150:                                              ; preds = %149, %145, %141, %98, %76, %49
  %151 = load i8, ptr %13, align 1
  %152 = trunc i8 %151 to i1
  br i1 %152, label %153, label %169

153:                                              ; preds = %150
  %154 = call i32 @H5G_loc_free(ptr noundef %10)
  %155 = icmp slt i32 %154, 0
  br i1 %155, label %156, label %169

156:                                              ; preds = %153
  br label %157

157:                                              ; preds = %156
  br label %158

158:                                              ; preds = %157
  br label %159

159:                                              ; preds = %158
  %160 = load i64, ptr @H5E_SYM_g, align 8
  %161 = load i64, ptr @H5E_CANTRELEASE_g, align 8
  %162 = call i32 (ptr, ptr, i32, i64, i64, ptr, ...) @H5E_printf_stack(ptr noundef @.str.1, ptr noundef @__func__.H5G__get_name_by_addr_cb, i32 noundef 1084, i64 noundef %160, i64 noundef %161, ptr noundef @.str.22)
  br label %163

163:                                              ; preds = %159
  store i8 1, ptr %15, align 1
  %164 = load i8, ptr %15, align 1
  %165 = trunc i8 %164 to i1
  %166 = zext i1 %165 to i8
  store i8 %166, ptr %15, align 1
  br label %167

167:                                              ; preds = %163
  store i32 -1, ptr %14, align 4
  br label %168

168:                                              ; preds = %167
  br label %169

169:                                              ; preds = %168, %153, %150
  %170 = load i32, ptr %14, align 4
  ret i32 %170
}