; Function Attrs: nounwind uwtable
define internal noundef i32 @H5G__get_name_by_addr_cb(i64 noundef %0, ptr noundef %1, ptr nocapture noundef readonly %2, ptr nocapture noundef %3) #2 {
  %5 = alloca %struct.H5G_loc_t, align 8
  %6 = alloca %struct.H5G_name_t, align 8
  %7 = alloca %struct.H5O_loc_t, align 8
  %8 = alloca i64, align 8
  %9 = alloca %struct.H5G_loc_t, align 8
  %10 = load i32, ptr %2, align 8
  %11 = icmp eq i32 %10, 0
  br i1 %11, label %12, label %.thread

12:                                               ; preds = %4
  %13 = load ptr, ptr %3, align 8
  %14 = load ptr, ptr %13, align 8
  %15 = getelementptr inbounds i8, ptr %2, i64 24
  %16 = load i64, ptr %15, align 8
  %17 = getelementptr inbounds i8, ptr %2, i64 32
  %18 = load i64, ptr %17, align 8
  %19 = call i32 @H5VL_native_token_to_addr(ptr noundef %14, i32 noundef 1, i64 %16, i64 %18, ptr noundef nonnull %8) #10
  %20 = icmp slt i32 %19, 0
  br i1 %20, label %21, label %25

21:                                               ; preds = %12
  %22 = load i64, ptr @H5E_SYM_g, align 8
  %23 = load i64, ptr @H5E_CANTUNSERIALIZE_g, align 8
  %24 = call i32 (ptr, ptr, i32, i64, i64, ptr, ...) @H5E_printf_stack(ptr noundef nonnull @.str.1, ptr noundef nonnull @__func__.H5G__get_name_by_addr_cb, i32 noundef 1051, i64 noundef %22, i64 noundef %23, ptr noundef nonnull @.str.19) #10
  br label %.thread

25:                                               ; preds = %12
  %26 = load ptr, ptr %3, align 8
  %27 = getelementptr inbounds i8, ptr %26, i64 8
  %28 = load i64, ptr %27, align 8
  %29 = load i64, ptr %8, align 8
  %30 = icmp eq i64 %28, %29
  br i1 %30, label %31, label %.thread

31:                                               ; preds = %25
  %32 = call i32 @H5G_loc(i64 noundef %0, ptr noundef nonnull %9) #10
  %33 = icmp slt i32 %32, 0
  br i1 %33, label %34, label %38

34:                                               ; preds = %31
  %35 = load i64, ptr @H5E_ARGS_g, align 8
  %36 = load i64, ptr @H5E_BADTYPE_g, align 8
  %37 = call i32 (ptr, ptr, i32, i64, i64, ptr, ...) @H5E_printf_stack(ptr noundef nonnull @.str.1, ptr noundef nonnull @__func__.H5G__get_name_by_addr_cb, i32 noundef 1058, i64 noundef %35, i64 noundef %36, ptr noundef nonnull @.str.20) #10
  br label %.thread

38:                                               ; preds = %31
  store ptr %7, ptr %5, align 8
  %39 = getelementptr inbounds i8, ptr %5, i64 8
  store ptr %6, ptr %39, align 8
  %40 = call i32 @H5G_loc_reset(ptr noundef nonnull %5) #10
  %41 = call i32 @H5G_loc_find(ptr noundef nonnull %9, ptr noundef %1, ptr noundef nonnull %5) #10
  %42 = icmp slt i32 %41, 0
  br i1 %42, label %43, label %47

43:                                               ; preds = %38
  %44 = load i64, ptr @H5E_SYM_g, align 8
  %45 = load i64, ptr @H5E_NOTFOUND_g, align 8
  %46 = call i32 (ptr, ptr, i32, i64, i64, ptr, ...) @H5E_printf_stack(ptr noundef nonnull @.str.1, ptr noundef nonnull @__func__.H5G__get_name_by_addr_cb, i32 noundef 1067, i64 noundef %44, i64 noundef %45, ptr noundef nonnull @.str.21) #10
  br label %.thread

47:                                               ; preds = %38
  %48 = load ptr, ptr %3, align 8
  %49 = getelementptr inbounds i8, ptr %48, i64 8
  %50 = load i64, ptr %49, align 8
  %51 = load ptr, ptr %5, align 8
  %52 = getelementptr inbounds i8, ptr %51, i64 8
  %53 = load i64, ptr %52, align 8
  %54 = icmp eq i64 %50, %53
  br i1 %54, label %55, label %67

55:                                               ; preds = %47
  %56 = load ptr, ptr %48, align 8
  %57 = load ptr, ptr %51, align 8
  %58 = icmp eq ptr %56, %57
  br i1 %58, label %59, label %67

59:                                               ; preds = %55
  %60 = call noalias ptr @H5MM_strdup(ptr noundef %1) #10
  %61 = getelementptr inbounds i8, ptr %3, i64 8
  store ptr %60, ptr %61, align 8
  %62 = icmp eq ptr %60, null
  br i1 %62, label %63, label %67

63:                                               ; preds = %59
  %64 = load i64, ptr @H5E_SYM_g, align 8
  %65 = load i64, ptr @H5E_CANTALLOC_g, align 8
  %66 = call i32 (ptr, ptr, i32, i64, i64, ptr, ...) @H5E_printf_stack(ptr noundef nonnull @.str.1, ptr noundef nonnull @__func__.H5G__get_name_by_addr_cb, i32 noundef 1074, i64 noundef %64, i64 noundef %65, ptr noundef nonnull @.str.14) #10
  br label %67

67:                                               ; preds = %63, %55, %47, %59
  %.0 = phi i32 [ -1, %63 ], [ 0, %55 ], [ 0, %47 ], [ 1, %59 ]
  %68 = call i32 @H5G_loc_free(ptr noundef nonnull %5) #10
  %69 = icmp slt i32 %68, 0
  br i1 %69, label %70, label %.thread

70:                                               ; preds = %67
  %71 = load i64, ptr @H5E_SYM_g, align 8
  %72 = load i64, ptr @H5E_CANTRELEASE_g, align 8
  %73 = call i32 (ptr, ptr, i32, i64, i64, ptr, ...) @H5E_printf_stack(ptr noundef nonnull @.str.1, ptr noundef nonnull @__func__.H5G__get_name_by_addr_cb, i32 noundef 1084, i64 noundef %71, i64 noundef %72, ptr noundef nonnull @.str.22) #10
  br label %.thread

.thread:                                          ; preds = %4, %25, %43, %34, %21, %70, %67
  %.1 = phi i32 [ -1, %70 ], [ %.0, %67 ], [ 0, %4 ], [ 0, %25 ], [ -1, %43 ], [ -1, %34 ], [ -1, %21 ]
  ret i32 %.1
}